; Function Attrs: nounwind uwtable
define internal range(i32 0, 2) i32 @pkey_ecd_digestsign448(ptr noundef %0, ptr noundef %1, ptr noundef captures(none) %2, ptr noundef %3, i64 noundef %4) #0 {
  %6 = tail call ptr @EVP_MD_CTX_get_pkey_ctx(ptr noundef %0) #8
  %7 = getelementptr inbounds nuw i8, ptr %6, i64 136
  %8 = load ptr, ptr %7, align 8, !tbaa !51
  %9 = tail call ptr @evp_pkey_get_legacy(ptr noundef %8) #8
  %10 = icmp eq ptr %9, null
  br i1 %10, label %11, label %12

11:                                               ; preds = %5
  tail call void @ERR_new() #8
  tail call void @ERR_set_debug(ptr noundef nonnull @.str.8, i32 noundef 840, ptr noundef nonnull @__func__.pkey_ecd_digestsign448) #8
  tail call void (i32, i32, ptr, ...) @ERR_set_error(i32 noundef 16, i32 noundef 116, ptr noundef null) #8
  br label %29

12:                                               ; preds = %5
  %13 = icmp eq ptr %1, null
  br i1 %13, label %14, label %15

14:                                               ; preds = %12
  store i64 114, ptr %2, align 8, !tbaa !35
  br label %29

15:                                               ; preds = %12
  %16 = load i64, ptr %2, align 8, !tbaa !35
  %17 = icmp ult i64 %16, 114
  br i1 %17, label %18, label %19

18:                                               ; preds = %15
  tail call void @ERR_new() #8
  tail call void @ERR_set_debug(ptr noundef nonnull @.str.8, i32 noundef 849, ptr noundef nonnull @__func__.pkey_ecd_digestsign448) #8
  tail call void (i32, i32, ptr, ...) @ERR_set_error(i32 noundef 16, i32 noundef 100, ptr noundef null) #8
  br label %29

19:                                               ; preds = %15
  %20 = load ptr, ptr %9, align 8, !tbaa !53
  %21 = getelementptr inbounds nuw i8, ptr %9, i64 17
  %22 = getelementptr inbounds nuw i8, ptr %9, i64 80
  %23 = load ptr, ptr %22, align 8, !tbaa !28
  %24 = getelementptr inbounds nuw i8, ptr %9, i64 8
  %25 = load ptr, ptr %24, align 8, !tbaa !54
  %26 = tail call i32 @ossl_ed448_sign(ptr noundef %20, ptr noundef nonnull %1, ptr noundef %3, i64 noundef %4, ptr noundef nonnull %21, ptr noundef %23, ptr noundef null, i64 noundef 0, i8 noundef zeroext 0, ptr noundef %25) #8
  %27 = icmp eq i32 %26, 0
  br i1 %27, label %29, label %28

28:                                               ; preds = %19
  store i64 114, ptr %2, align 8, !tbaa !35
  br label %29

29:                                               ; preds = %19, %28, %18, %14, %11
  %.0 = phi i32 [ 0, %11 ], [ 1, %14 ], [ 0, %18 ], [ 1, %28 ], [ 0, %19 ]
  ret i32 %.0
}